target datalayout = "e-m:e-p270:32:32-p271:32:32-p272:64:64-i64:64-i128:128-f80:128-n8:16:32:64-S128"
target triple = "x86_64-pc-linux-gnu"

%"class.pxrInternal_v0_24__pxrReserved__::pxr_half::half" = type { i16 }

; Function Attrs: mustprogress nounwind uwtable
define linkonce_odr noundef zeroext i16 @_ZNK32pxrInternal_v0_24__pxrReserved__8pxr_half4half4bitsEv(ptr noundef nonnull align 2 dereferenceable(2) %0) #0 comdat align 2 {
  %2 = alloca ptr, align 8
  store ptr %0, ptr %2, align 8
  %3 = load ptr, ptr %2, align 8
  %4 = getelementptr inbounds nuw %"class.pxrInternal_v0_24__pxrReserved__::pxr_half::half", ptr %3, i32 0, i32 0
  %5 = load i16, ptr %4, align 2
  ret i16 %5
}

; Function Attrs: mustprogress uwtable
define void @_ZN32pxrInternal_v0_24__pxrReserved__8pxr_half9printBitsEPcNS0_4halfE(ptr noundef %0, i16 %1) #1 {
  %3 = alloca %"class.pxrInternal_v0_24__pxrReserved__::pxr_half::half", align 2
  %4 = alloca ptr, align 8
  %5 = alloca i16, align 2
  %6 = alloca i32, align 4
  %7 = alloca i32, align 4
  %8 = getelementptr inbounds nuw %"class.pxrInternal_v0_24__pxrReserved__::pxr_half::half", ptr %3, i32 0, i32 0
  store i16 %1, ptr %8, align 2
  store ptr %0, ptr %4, align 8
  %9 = call noundef zeroext i16 @_ZNK32pxrInternal_v0_24__pxrReserved__8pxr_half4half4bitsEv(ptr noundef nonnull align 2 dereferenceable(2) %3)
  store i16 %9, ptr %5, align 2
  store i32 15, ptr %6, align 4
  store i32 0, ptr %7, align 4
  br label %10

10:                                               ; preds = %37, %2
  %11 = load i32, ptr %6, align 4
  %12 = icmp sge i32 %11, 0
  br i1 %12, label %13, label %42

13:                                               ; preds = %10
  %14 = load i16, ptr %5, align 2
  %15 = zext i16 %14 to i32
  %16 = load i32, ptr %6, align 4
  %17 = ashr i32 %15, %16
  %18 = and i32 %17, 1
  %19 = icmp ne i32 %18, 0
  %20 = select i1 %19, i8 49, i8 48
  %21 = load ptr, ptr %4, align 8
  %22 = load i32, ptr %7, align 4
  %23 = sext i32 %22 to i64
  %24 = getelementptr inbounds i8, ptr %21, i64 %23
  store i8 %20, ptr %24, align 1
  %25 = load i32, ptr %6, align 4
  %26 = icmp eq i32 %25, 15
  br i1 %26, label %30, label %27

27:                                               ; preds = %13
  %28 = load i32, ptr %6, align 4
  %29 = icmp eq i32 %28, 10
  br i1 %29, label %30, label %36

30:                                               ; preds = %27, %13
  %31 = load ptr, ptr %4, align 8
  %32 = load i32, ptr %7, align 4
  %33 = add nsw i32 %32, 1
  store i32 %33, ptr %7, align 4
  %34 = sext i32 %33 to i64
  %35 = getelementptr inbounds i8, ptr %31, i64 %34
  store i8 32, ptr %35, align 1
  br label %36

36:                                               ; preds = %30, %27
  br label %37

37:                                               ; preds = %36
  %38 = load i32, ptr %6, align 4
  %39 = add nsw i32 %38, -1
  store i32 %39, ptr %6, align 4
  %40 = load i32, ptr %7, align 4
  %41 = add nsw i32 %40, 1
  store i32 %41, ptr %7, align 4
  br label %10, !llvm.loop !8

42:                                               ; preds = %10
  %43 = load ptr, ptr %4, align 8
  %44 = getelementptr inbounds i8, ptr %43, i64 18
  store i8 0, ptr %44, align 1
  ret void
}