; Function Attrs: mustprogress nofree norecurse nosync nounwind memory(argmem: write) uwtable
define void @_ZN32pxrInternal_v0_24__pxrReserved__8pxr_half9printBitsEPcNS0_4halfE(ptr nocapture noundef writeonly %0, i16 %1) local_unnamed_addr #3 {
  %3 = zext i16 %1 to i32
  br label %4

4:                                                ; preds = %2, %14
  %.014 = phi i32 [ 0, %2 ], [ %16, %14 ]
  %.01213 = phi i32 [ 15, %2 ], [ %15, %14 ]
  %5 = shl nuw i32 1, %.01213
  %6 = and i32 %5, %3
  %.not = icmp eq i32 %6, 0
  %7 = select i1 %.not, i8 48, i8 49
  %8 = sext i32 %.014 to i64
  %9 = getelementptr inbounds i8, ptr %0, i64 %8
  store i8 %7, ptr %9, align 1
  switch i32 %.01213, label %14 [
    i32 15, label %10
    i32 10, label %10
  ]

10:                                               ; preds = %4, %4
  %11 = add nsw i32 %.014, 1
  %12 = sext i32 %11 to i64
  %13 = getelementptr inbounds i8, ptr %0, i64 %12
  store i8 32, ptr %13, align 1
  br label %14

14:                                               ; preds = %4, %10
  %.1 = phi i32 [ %11, %10 ], [ %.014, %4 ]
  %15 = add nsw i32 %.01213, -1
  %16 = add nsw i32 %.1, 1
  %.not15 = icmp eq i32 %.01213, 0
  br i1 %.not15, label %17, label %4, !llvm.loop !8

17:                                               ; preds = %14
  %18 = getelementptr inbounds i8, ptr %0, i64 18
  store i8 0, ptr %18, align 1
  ret void
}